; Function Attrs: nounwind uwtable
define internal noundef i32 @IDAApolynomialStorePnt(ptr noundef readonly captures(none) %0, ptr noundef readonly captures(none) %1) #0 {
  %3 = getelementptr inbounds nuw i8, ptr %0, i64 1816
  %4 = load ptr, ptr %3, align 8, !tbaa !3
  %5 = getelementptr inbounds nuw i8, ptr %1, i64 8
  %6 = load ptr, ptr %5, align 8, !tbaa !28
  %7 = getelementptr inbounds nuw i8, ptr %0, i64 312
  %8 = load ptr, ptr %7, align 8, !tbaa !68
  %9 = load ptr, ptr %6, align 8, !tbaa !79
  tail call void @N_VScale(double noundef 1.000000e+00, ptr noundef %8, ptr noundef %9) #9
  %10 = getelementptr inbounds nuw i8, ptr %6, i64 16
  %11 = load ptr, ptr %10, align 8, !tbaa !81
  %.not = icmp eq ptr %11, null
  br i1 %.not, label %IDAAGettnSolutionYp.exit, label %12

12:                                               ; preds = %2
  %13 = getelementptr inbounds nuw i8, ptr %0, i64 1320
  %14 = load i64, ptr %13, align 8, !tbaa !75
  %15 = icmp eq i64 %14, 0
  br i1 %15, label %16, label %19

16:                                               ; preds = %12
  %17 = getelementptr inbounds nuw i8, ptr %0, i64 320
  %18 = load ptr, ptr %17, align 8, !tbaa !68
  tail call void @N_VScale(double noundef 1.000000e+00, ptr noundef %18, ptr noundef nonnull %11) #9
  br label %IDAAGettnSolutionYp.exit

19:                                               ; preds = %12
  tail call void @N_VConst(double noundef 0.000000e+00, ptr noundef nonnull %11) #9
  %20 = getelementptr inbounds nuw i8, ptr %0, i64 1660
  %21 = load i32, ptr %20, align 4, !tbaa !76
  %spec.store.select.i = tail call i32 @llvm.umax.i32(i32 %21, i32 1)
  %.not29.i = icmp slt i32 %spec.store.select.i, 1
  br i1 %.not29.i, label %IDAAGettnSolutionYp.exit, label %.lr.ph.i

.lr.ph.i:                                         ; preds = %19
  %22 = getelementptr inbounds nuw i8, ptr %0, i64 360
  %23 = add nuw i32 %spec.store.select.i, 1
  %wide.trip.count.i = zext i32 %23 to i64
  br label %24

24:                                               ; preds = %24, %.lr.ph.i
  %indvars.iv.i = phi i64 [ 1, %.lr.ph.i ], [ %indvars.iv.next.i, %24 ]
  %.033.i = phi double [ 0.000000e+00, %.lr.ph.i ], [ %33, %24 ]
  %.02532.i = phi double [ 0.000000e+00, %.lr.ph.i ], [ %29, %24 ]
  %.02631.i = phi double [ 1.000000e+00, %.lr.ph.i ], [ %30, %24 ]
  %25 = add nsw i64 %indvars.iv.i, -1
  %26 = getelementptr inbounds [6 x double], ptr %22, i64 0, i64 %25
  %27 = load double, ptr %26, align 8, !tbaa !77
  %28 = fdiv double %.02631.i, %27
  %29 = tail call double @llvm.fmuladd.f64(double %.02532.i, double %.033.i, double %28)
  %30 = fmul double %.033.i, %.02631.i
  %31 = getelementptr inbounds nuw [6 x double], ptr %22, i64 0, i64 %indvars.iv.i
  %32 = load double, ptr %31, align 8, !tbaa !77
  %33 = fdiv double %27, %32
  %34 = getelementptr inbounds nuw [6 x ptr], ptr %7, i64 0, i64 %indvars.iv.i
  %35 = load ptr, ptr %34, align 8, !tbaa !68
  tail call void @N_VLinearSum(double noundef 1.000000e+00, ptr noundef nonnull %11, double noundef %29, ptr noundef %35, ptr noundef nonnull %11) #9
  %indvars.iv.next.i = add nuw nsw i64 %indvars.iv.i, 1
  %exitcond.not.i = icmp eq i64 %indvars.iv.next.i, %wide.trip.count.i
  br i1 %exitcond.not.i, label %IDAAGettnSolutionYp.exit, label %24, !llvm.loop !78

IDAAGettnSolutionYp.exit:                         ; preds = %24, %19, %16, %2
  %36 = getelementptr inbounds nuw i8, ptr %4, i64 160
  %37 = load i32, ptr %36, align 8, !tbaa !36
  %.not21 = icmp eq i32 %37, 0
  br i1 %.not21, label %56, label %.preheader

.preheader:                                       ; preds = %IDAAGettnSolutionYp.exit
  %38 = getelementptr inbounds nuw i8, ptr %0, i64 140
  %39 = load i32, ptr %38, align 4, !tbaa !50
  %40 = icmp sgt i32 %39, 0
  br i1 %40, label %.lr.ph, label %._crit_edge

.lr.ph:                                           ; preds = %.preheader
  %41 = getelementptr inbounds nuw i8, ptr %0, i64 800
  %42 = getelementptr inbounds nuw i8, ptr %6, i64 8
  br label %43

43:                                               ; preds = %.lr.ph, %43
  %indvars.iv = phi i64 [ 0, %.lr.ph ], [ %indvars.iv.next, %43 ]
  %44 = load ptr, ptr %41, align 8, !tbaa !70
  %45 = getelementptr inbounds nuw ptr, ptr %44, i64 %indvars.iv
  %46 = load ptr, ptr %45, align 8, !tbaa !68
  %47 = load ptr, ptr %42, align 8, !tbaa !82
  %48 = getelementptr inbounds nuw ptr, ptr %47, i64 %indvars.iv
  %49 = load ptr, ptr %48, align 8, !tbaa !68
  tail call void @N_VScale(double noundef 1.000000e+00, ptr noundef %46, ptr noundef %49) #9
  %indvars.iv.next = add nuw nsw i64 %indvars.iv, 1
  %50 = load i32, ptr %38, align 4, !tbaa !50
  %51 = sext i32 %50 to i64
  %52 = icmp slt i64 %indvars.iv.next, %51
  br i1 %52, label %43, label %._crit_edge, !llvm.loop !102

._crit_edge:                                      ; preds = %43, %.preheader
  %53 = getelementptr inbounds nuw i8, ptr %6, i64 24
  %54 = load ptr, ptr %53, align 8, !tbaa !83
  %.not22 = icmp eq ptr %54, null
  br i1 %.not22, label %56, label %55

55:                                               ; preds = %._crit_edge
  tail call fastcc void @IDAAGettnSolutionYpS(ptr noundef nonnull %0, ptr noundef nonnull %54)
  br label %56

56:                                               ; preds = %._crit_edge, %55, %IDAAGettnSolutionYp.exit
  %57 = getelementptr inbounds nuw i8, ptr %0, i64 1660
  %58 = load i32, ptr %57, align 4, !tbaa !76
  %59 = getelementptr inbounds nuw i8, ptr %6, i64 32
  store i32 %58, ptr %59, align 8, !tbaa !88
  ret i32 0
}